target datalayout = "e-m:e-p270:32:32-p271:32:32-p272:64:64-i64:64-i128:128-f80:128-n8:16:32:64-S128"
target triple = "x86_64-unknown-linux-gnu"

%class.ref_vector = type { %class.ref_vector_core }
%class.ref_vector_core = type { %class.ref_manager_wrapper, %class.ptr_vector }
%class.ref_manager_wrapper = type { ptr }
%class.ptr_vector = type { %class.vector.0 }
%class.vector.0 = type { ptr }
%class.svector.5 = type { %class.vector.6 }
%class.vector.6 = type { ptr }
%struct.mk_bounded_pp = type <{ ptr, ptr, i32, [4 x i8] }>
%class.ptr_vector.38 = type { %class.vector.39 }
%class.vector.39 = type { ptr }
%"class.smt::theory" = type <{ ptr, i32, [4 x i8], ptr, ptr, %class.ptr_vector.38, %class.svector.5, i32, i8, [3 x i8] }>
%"struct.seq::eq" = type { %class.ref_vector, %class.ref_vector }
%"class.smt::theory_seq::depeq" = type { %"struct.seq::eq", i32, ptr }

@.str.7 = private unnamed_addr constant [2 x i8] c"\0A\00", align 1
@.str.37 = private unnamed_addr constant [4 x i8] c" = \00", align 1
@.str.54 = private unnamed_addr constant [6 x i8] c" <- \0A\00", align 1

; Function Attrs: mustprogress nounwind uwtable
define linkonce_odr hidden noundef i32 @_ZNK6vectorIP4exprLb0EjE4sizeEv(ptr noundef nonnull align 8 dereferenceable(8) %this) #4 comdat align 2 {
entry:
  %retval = alloca i32, align 4
  %this.addr = alloca ptr, align 8
  store ptr %this, ptr %this.addr, align 8
  %this1 = load ptr, ptr %this.addr, align 8
  %m_data = getelementptr inbounds %class.vector.0, ptr %this1, i32 0, i32 0
  %0 = load ptr, ptr %m_data, align 8
  %cmp = icmp eq ptr %0, null
  br i1 %cmp, label %if.then, label %if.end

if.then:                                          ; preds = %entry
  store i32 0, ptr %retval, align 4
  br label %return

if.end:                                           ; preds = %entry
  %m_data2 = getelementptr inbounds %class.vector.0, ptr %this1, i32 0, i32 0
  %1 = load ptr, ptr %m_data2, align 8
  %arrayidx = getelementptr inbounds i32, ptr %1, i64 -1
  %2 = load i32, ptr %arrayidx, align 4
  store i32 %2, ptr %retval, align 4
  br label %return

return:                                           ; preds = %if.end, %if.then
  %3 = load i32, ptr %retval, align 4
  ret i32 %3
}

; Function Attrs: mustprogress uwtable
define linkonce_odr hidden noundef i32 @_ZNK15ref_vector_coreI4expr19ref_manager_wrapperIS0_11ast_managerEE4sizeEv(ptr noundef nonnull align 8 dereferenceable(16) %this) #5 comdat align 2 {
entry:
  %this.addr = alloca ptr, align 8
  store ptr %this, ptr %this.addr, align 8
  %this1 = load ptr, ptr %this.addr, align 8
  %m_nodes = getelementptr inbounds %class.ref_vector_core, ptr %this1, i32 0, i32 1
  %call = call noundef i32 @_ZNK6vectorIP4exprLb0EjE4sizeEv(ptr noundef nonnull align 8 dereferenceable(8) %m_nodes)
  ret i32 %call
}

; Function Attrs: mustprogress nounwind uwtable
define linkonce_odr hidden noundef ptr @_ZNK6vectorIP4exprLb0EjE5beginEv(ptr noundef nonnull align 8 dereferenceable(8) %this) #4 comdat align 2 {
entry:
  %this.addr = alloca ptr, align 8
  store ptr %this, ptr %this.addr, align 8
  %this1 = load ptr, ptr %this.addr, align 8
  %m_data = getelementptr inbounds %class.vector.0, ptr %this1, i32 0, i32 0
  %0 = load ptr, ptr %m_data, align 8
  ret ptr %0
}

; Function Attrs: mustprogress nounwind uwtable
define linkonce_odr hidden noundef ptr @_ZNK3smt10theory_seq5depeq3depEv(ptr noundef nonnull align 8 dereferenceable(48) %this) #4 comdat align 2 {
entry:
  %this.addr = alloca ptr, align 8
  store ptr %this, ptr %this.addr, align 8
  %this1 = load ptr, ptr %this.addr, align 8
  %m_dep = getelementptr inbounds %"class.smt::theory_seq::depeq", ptr %this1, i32 0, i32 2
  %0 = load ptr, ptr %m_dep, align 8
  ret ptr %0
}

; Function Attrs: mustprogress uwtable
define linkonce_odr hidden noundef nonnull align 8 dereferenceable(8) ptr @_ZlsRSoRK13mk_bounded_pp(ptr noundef nonnull align 8 dereferenceable(8) %out, ptr noundef nonnull align 8 dereferenceable(20) %p) #5 comdat {
entry:
  %out.addr = alloca ptr, align 8
  %p.addr = alloca ptr, align 8
  store ptr %out, ptr %out.addr, align 8
  store ptr %p, ptr %p.addr, align 8
  %0 = load ptr, ptr %out.addr, align 8
  %1 = load ptr, ptr %p.addr, align 8
  %m_manager = getelementptr inbounds %struct.mk_bounded_pp, ptr %1, i32 0, i32 1
  %2 = load ptr, ptr %m_manager, align 8
  %3 = load ptr, ptr %p.addr, align 8
  %m_ast = getelementptr inbounds %struct.mk_bounded_pp, ptr %3, i32 0, i32 0
  %4 = load ptr, ptr %m_ast, align 8
  %5 = load ptr, ptr %p.addr, align 8
  %m_depth = getelementptr inbounds %struct.mk_bounded_pp, ptr %5, i32 0, i32 2
  %6 = load i32, ptr %m_depth, align 8
  call void @_Z17ast_ll_bounded_ppRSoR11ast_managerP3astj(ptr noundef nonnull align 8 dereferenceable(8) %0, ptr noundef nonnull align 8 dereferenceable(976) %2, ptr noundef %4, i32 noundef %6)
  %7 = load ptr, ptr %out.addr, align 8
  ret ptr %7
}

; Function Attrs: mustprogress nounwind uwtable
define linkonce_odr hidden void @_ZN13mk_bounded_ppC2EP3astR11ast_managerj(ptr noundef nonnull align 8 dereferenceable(20) %this, ptr noundef %a, ptr noundef nonnull align 8 dereferenceable(976) %m, i32 noundef %depth) unnamed_addr #4 comdat align 2 {
entry:
  %this.addr = alloca ptr, align 8
  %a.addr = alloca ptr, align 8
  %m.addr = alloca ptr, align 8
  %depth.addr = alloca i32, align 4
  store ptr %this, ptr %this.addr, align 8
  store ptr %a, ptr %a.addr, align 8
  store ptr %m, ptr %m.addr, align 8
  store i32 %depth, ptr %depth.addr, align 4
  %this1 = load ptr, ptr %this.addr, align 8
  %m_ast = getelementptr inbounds %struct.mk_bounded_pp, ptr %this1, i32 0, i32 0
  %0 = load ptr, ptr %a.addr, align 8
  store ptr %0, ptr %m_ast, align 8
  %m_manager = getelementptr inbounds %struct.mk_bounded_pp, ptr %this1, i32 0, i32 1
  %1 = load ptr, ptr %m.addr, align 8
  store ptr %1, ptr %m_manager, align 8
  %m_depth = getelementptr inbounds %struct.mk_bounded_pp, ptr %this1, i32 0, i32 2
  %2 = load i32, ptr %depth.addr, align 4
  store i32 %2, ptr %m_depth, align 8
  ret void
}

; Function Attrs: mustprogress uwtable
define linkonce_odr hidden noundef ptr @_ZNK15ref_vector_coreI4expr19ref_manager_wrapperIS0_11ast_managerEE3endEv(ptr noundef nonnull align 8 dereferenceable(16) %this) #5 comdat align 2 {
entry:
  %this.addr = alloca ptr, align 8
  store ptr %this, ptr %this.addr, align 8
  %this1 = load ptr, ptr %this.addr, align 8
  %call = call noundef ptr @_ZNK15ref_vector_coreI4expr19ref_manager_wrapperIS0_11ast_managerEE5beginEv(ptr noundef nonnull align 8 dereferenceable(16) %this1)
  %call2 = call noundef i32 @_ZNK15ref_vector_coreI4expr19ref_manager_wrapperIS0_11ast_managerEE4sizeEv(ptr noundef nonnull align 8 dereferenceable(16) %this1)
  %idx.ext = zext i32 %call2 to i64
  %add.ptr = getelementptr inbounds ptr, ptr %call, i64 %idx.ext
  ret ptr %add.ptr
}

; Function Attrs: mustprogress uwtable
define linkonce_odr hidden noundef ptr @_ZNK15ref_vector_coreI4expr19ref_manager_wrapperIS0_11ast_managerEE5beginEv(ptr noundef nonnull align 8 dereferenceable(16) %this) #5 comdat align 2 {
entry:
  %this.addr = alloca ptr, align 8
  store ptr %this, ptr %this.addr, align 8
  %this1 = load ptr, ptr %this.addr, align 8
  %m_nodes = getelementptr inbounds %class.ref_vector_core, ptr %this1, i32 0, i32 1
  %call = call noundef ptr @_ZNK6vectorIP4exprLb0EjE5beginEv(ptr noundef nonnull align 8 dereferenceable(8) %m_nodes)
  ret ptr %call
}

; Function Attrs: mustprogress uwtable
define hidden noundef nonnull align 8 dereferenceable(8) ptr @_ZNK3smt10theory_seq16display_equationERSoRKNS0_5depeqE(ptr noundef nonnull align 8 dereferenceable(4328) %this, ptr noundef nonnull align 8 dereferenceable(8) %out, ptr noundef nonnull align 8 dereferenceable(48) %e) #5 align 2 {
entry:
  %this.addr = alloca ptr, align 8
  %out.addr = alloca ptr, align 8
  %e.addr = alloca ptr, align 8
  %first = alloca i8, align 1
  %__range1 = alloca ptr, align 8
  %__begin1 = alloca ptr, align 8
  %__end1 = alloca ptr, align 8
  %a = alloca ptr, align 8
  %ref.tmp = alloca %struct.mk_bounded_pp, align 8
  %__range16 = alloca ptr, align 8
  %__begin17 = alloca ptr, align 8
  %__end19 = alloca ptr, align 8
  %a14 = alloca ptr, align 8
  %ref.tmp20 = alloca %struct.mk_bounded_pp, align 8
  store ptr %this, ptr %this.addr, align 8
  store ptr %out, ptr %out.addr, align 8
  store ptr %e, ptr %e.addr, align 8
  %this1 = load ptr, ptr %this.addr, align 8
  store i8 1, ptr %first, align 1
  %0 = load ptr, ptr %e.addr, align 8
  %ls = getelementptr inbounds %"struct.seq::eq", ptr %0, i32 0, i32 0
  store ptr %ls, ptr %__range1, align 8
  %1 = load ptr, ptr %__range1, align 8
  %call = call noundef ptr @_ZNK15ref_vector_coreI4expr19ref_manager_wrapperIS0_11ast_managerEE5beginEv(ptr noundef nonnull align 8 dereferenceable(16) %1)
  store ptr %call, ptr %__begin1, align 8
  %2 = load ptr, ptr %__range1, align 8
  %call2 = call noundef ptr @_ZNK15ref_vector_coreI4expr19ref_manager_wrapperIS0_11ast_managerEE3endEv(ptr noundef nonnull align 8 dereferenceable(16) %2)
  store ptr %call2, ptr %__end1, align 8
  br label %for.cond

for.cond:                                         ; preds = %for.inc, %entry
  %3 = load ptr, ptr %__begin1, align 8
  %4 = load ptr, ptr %__end1, align 8
  %cmp = icmp ne ptr %3, %4
  br i1 %cmp, label %for.body, label %for.end

for.body:                                         ; preds = %for.cond
  %5 = load ptr, ptr %__begin1, align 8
  %6 = load ptr, ptr %5, align 8
  store ptr %6, ptr %a, align 8
  %7 = load i8, ptr %first, align 1
  %tobool = trunc i8 %7 to i1
  br i1 %tobool, label %if.then, label %if.else

if.then:                                          ; preds = %for.body
  store i8 0, ptr %first, align 1
  br label %if.end

if.else:                                          ; preds = %for.body
  %8 = load ptr, ptr %out.addr, align 8
  %call3 = call noundef nonnull align 8 dereferenceable(8) ptr @_ZStlsISt11char_traitsIcEERSt13basic_ostreamIcT_ES5_PKc(ptr noundef nonnull align 8 dereferenceable(8) %8, ptr noundef @.str.7)
  br label %if.end

if.end:                                           ; preds = %if.else, %if.then
  %9 = load ptr, ptr %out.addr, align 8
  %10 = load ptr, ptr %a, align 8
  %m = getelementptr inbounds %"class.smt::theory", ptr %this1, i32 0, i32 4
  %11 = load ptr, ptr %m, align 8
  call void @_ZN13mk_bounded_ppC2EP3astR11ast_managerj(ptr noundef nonnull align 8 dereferenceable(20) %ref.tmp, ptr noundef %10, ptr noundef nonnull align 8 dereferenceable(976) %11, i32 noundef 2)
  %call4 = call noundef nonnull align 8 dereferenceable(8) ptr @_ZlsRSoRK13mk_bounded_pp(ptr noundef nonnull align 8 dereferenceable(8) %9, ptr noundef nonnull align 8 dereferenceable(20) %ref.tmp)
  br label %for.inc

for.inc:                                          ; preds = %if.end
  %12 = load ptr, ptr %__begin1, align 8
  %incdec.ptr = getelementptr inbounds ptr, ptr %12, i32 1
  store ptr %incdec.ptr, ptr %__begin1, align 8
  br label %for.cond

for.end:                                          ; preds = %for.cond
  %13 = load ptr, ptr %out.addr, align 8
  %call5 = call noundef nonnull align 8 dereferenceable(8) ptr @_ZStlsISt11char_traitsIcEERSt13basic_ostreamIcT_ES5_PKc(ptr noundef nonnull align 8 dereferenceable(8) %13, ptr noundef @.str.37)
  %14 = load ptr, ptr %e.addr, align 8
  %rs = getelementptr inbounds %"struct.seq::eq", ptr %14, i32 0, i32 1
  store ptr %rs, ptr %__range16, align 8
  %15 = load ptr, ptr %__range16, align 8
  %call8 = call noundef ptr @_ZNK15ref_vector_coreI4expr19ref_manager_wrapperIS0_11ast_managerEE5beginEv(ptr noundef nonnull align 8 dereferenceable(16) %15)
  store ptr %call8, ptr %__begin17, align 8
  %16 = load ptr, ptr %__range16, align 8
  %call10 = call noundef ptr @_ZNK15ref_vector_coreI4expr19ref_manager_wrapperIS0_11ast_managerEE3endEv(ptr noundef nonnull align 8 dereferenceable(16) %16)
  store ptr %call10, ptr %__end19, align 8
  br label %for.cond11

for.cond11:                                       ; preds = %for.inc23, %for.end
  %17 = load ptr, ptr %__begin17, align 8
  %18 = load ptr, ptr %__end19, align 8
  %cmp12 = icmp ne ptr %17, %18
  br i1 %cmp12, label %for.body13, label %for.end25

for.body13:                                       ; preds = %for.cond11
  %19 = load ptr, ptr %__begin17, align 8
  %20 = load ptr, ptr %19, align 8
  store ptr %20, ptr %a14, align 8
  %21 = load i8, ptr %first, align 1
  %tobool15 = trunc i8 %21 to i1
  br i1 %tobool15, label %if.then16, label %if.else17

if.then16:                                        ; preds = %for.body13
  store i8 0, ptr %first, align 1
  br label %if.end19

if.else17:                                        ; preds = %for.body13
  %22 = load ptr, ptr %out.addr, align 8
  %call18 = call noundef nonnull align 8 dereferenceable(8) ptr @_ZStlsISt11char_traitsIcEERSt13basic_ostreamIcT_ES5_PKc(ptr noundef nonnull align 8 dereferenceable(8) %22, ptr noundef @.str.7)
  br label %if.end19

if.end19:                                         ; preds = %if.else17, %if.then16
  %23 = load ptr, ptr %out.addr, align 8
  %24 = load ptr, ptr %a14, align 8
  %m21 = getelementptr inbounds %"class.smt::theory", ptr %this1, i32 0, i32 4
  %25 = load ptr, ptr %m21, align 8
  call void @_ZN13mk_bounded_ppC2EP3astR11ast_managerj(ptr noundef nonnull align 8 dereferenceable(20) %ref.tmp20, ptr noundef %24, ptr noundef nonnull align 8 dereferenceable(976) %25, i32 noundef 2)
  %call22 = call noundef nonnull align 8 dereferenceable(8) ptr @_ZlsRSoRK13mk_bounded_pp(ptr noundef nonnull align 8 dereferenceable(8) %23, ptr noundef nonnull align 8 dereferenceable(20) %ref.tmp20)
  br label %for.inc23

for.inc23:                                        ; preds = %if.end19
  %26 = load ptr, ptr %__begin17, align 8
  %incdec.ptr24 = getelementptr inbounds ptr, ptr %26, i32 1
  store ptr %incdec.ptr24, ptr %__begin17, align 8
  br label %for.cond11

for.end25:                                        ; preds = %for.cond11
  %27 = load ptr, ptr %out.addr, align 8
  %call26 = call noundef nonnull align 8 dereferenceable(8) ptr @_ZStlsISt11char_traitsIcEERSt13basic_ostreamIcT_ES5_PKc(ptr noundef nonnull align 8 dereferenceable(8) %27, ptr noundef @.str.54)
  %28 = load ptr, ptr %out.addr, align 8
  %29 = load ptr, ptr %e.addr, align 8
  %call27 = call noundef ptr @_ZNK3smt10theory_seq5depeq3depEv(ptr noundef nonnull align 8 dereferenceable(48) %29)
  %call28 = call noundef nonnull align 8 dereferenceable(8) ptr @_ZNK3smt10theory_seq12display_depsERSoPN18dependency_managerIN25scoped_dependency_managerINS0_10assumptionEE6configEE10dependencyE(ptr noundef nonnull align 8 dereferenceable(4328) %this1, ptr noundef nonnull align 8 dereferenceable(8) %28, ptr noundef %call27)
  ret ptr %call28
}