; Function Attrs: mustprogress uwtable
define hidden noundef nonnull align 8 dereferenceable(8) ptr @_ZNK3smt10theory_seq16display_equationERSoRKNS0_5depeqE(ptr noundef nonnull align 8 dereferenceable(4328) %this, ptr noundef nonnull returned align 8 dereferenceable(8) %out, ptr nocapture noundef nonnull readonly align 8 dereferenceable(48) %e) local_unnamed_addr #3 align 2 {
entry:
  %m_nodes.i = getelementptr inbounds i8, ptr %e, i64 8
  %0 = load ptr, ptr %m_nodes.i, align 8
  %cmp.i.i.i = icmp eq ptr %0, null
  br i1 %cmp.i.i.i, label %for.end, label %_ZNK15ref_vector_coreI4expr19ref_manager_wrapperIS0_11ast_managerEE3endEv.exit

_ZNK15ref_vector_coreI4expr19ref_manager_wrapperIS0_11ast_managerEE3endEv.exit: ; preds = %entry
  %arrayidx.i.i.i = getelementptr inbounds i8, ptr %0, i64 -4
  %1 = load i32, ptr %arrayidx.i.i.i, align 4
  %2 = zext i32 %1 to i64
  %add.ptr.i = getelementptr inbounds ptr, ptr %0, i64 %2
  %cmp.not30 = icmp eq i32 %1, 0
  br i1 %cmp.not30, label %for.end, label %for.body.lr.ph

for.body.lr.ph:                                   ; preds = %_ZNK15ref_vector_coreI4expr19ref_manager_wrapperIS0_11ast_managerEE3endEv.exit
  %m = getelementptr inbounds i8, ptr %this, i64 24
  br label %for.body

for.body:                                         ; preds = %for.body.lr.ph, %if.end
  %first.032 = phi i8 [ 1, %for.body.lr.ph ], [ %first.1, %if.end ]
  %__begin1.031 = phi ptr [ %0, %for.body.lr.ph ], [ %incdec.ptr, %if.end ]
  %3 = load ptr, ptr %__begin1.031, align 8
  %4 = and i8 %first.032, 1
  %tobool.not = icmp eq i8 %4, 0
  br i1 %tobool.not, label %if.else, label %if.end

if.else:                                          ; preds = %for.body
  %call3 = tail call noundef nonnull align 8 dereferenceable(8) ptr @_ZStlsISt11char_traitsIcEERSt13basic_ostreamIcT_ES5_PKc(ptr noundef nonnull align 8 dereferenceable(8) %out, ptr noundef nonnull @.str.7)
  br label %if.end

if.end:                                           ; preds = %for.body, %if.else
  %first.1 = phi i8 [ %first.032, %if.else ], [ 0, %for.body ]
  %5 = load ptr, ptr %m, align 8
  tail call void @_Z17ast_ll_bounded_ppRSoR11ast_managerP3astj(ptr noundef nonnull align 8 dereferenceable(8) %out, ptr noundef nonnull align 8 dereferenceable(976) %5, ptr noundef %3, i32 noundef 2)
  %incdec.ptr = getelementptr inbounds i8, ptr %__begin1.031, i64 8
  %cmp.not = icmp eq ptr %incdec.ptr, %add.ptr.i
  br i1 %cmp.not, label %for.end, label %for.body

for.end:                                          ; preds = %if.end, %entry, %_ZNK15ref_vector_coreI4expr19ref_manager_wrapperIS0_11ast_managerEE3endEv.exit
  %first.0.lcssa = phi i8 [ 1, %_ZNK15ref_vector_coreI4expr19ref_manager_wrapperIS0_11ast_managerEE3endEv.exit ], [ 1, %entry ], [ %first.1, %if.end ]
  %call5 = tail call noundef nonnull align 8 dereferenceable(8) ptr @_ZStlsISt11char_traitsIcEERSt13basic_ostreamIcT_ES5_PKc(ptr noundef nonnull align 8 dereferenceable(8) %out, ptr noundef nonnull @.str.37)
  %m_nodes.i18 = getelementptr inbounds i8, ptr %e, i64 24
  %6 = load ptr, ptr %m_nodes.i18, align 8
  %cmp.i.i.i20 = icmp eq ptr %6, null
  br i1 %cmp.i.i.i20, label %for.end25, label %_ZNK15ref_vector_coreI4expr19ref_manager_wrapperIS0_11ast_managerEE3endEv.exit25

_ZNK15ref_vector_coreI4expr19ref_manager_wrapperIS0_11ast_managerEE3endEv.exit25: ; preds = %for.end
  %arrayidx.i.i.i22 = getelementptr inbounds i8, ptr %6, i64 -4
  %7 = load i32, ptr %arrayidx.i.i.i22, align 4
  %8 = zext i32 %7 to i64
  %add.ptr.i24 = getelementptr inbounds ptr, ptr %6, i64 %8
  %cmp12.not33 = icmp eq i32 %7, 0
  br i1 %cmp12.not33, label %for.end25, label %for.body13.lr.ph

for.body13.lr.ph:                                 ; preds = %_ZNK15ref_vector_coreI4expr19ref_manager_wrapperIS0_11ast_managerEE3endEv.exit25
  %m21 = getelementptr inbounds i8, ptr %this, i64 24
  br label %for.body13

for.body13:                                       ; preds = %for.body13.lr.ph, %if.end19
  %first.235 = phi i8 [ %first.0.lcssa, %for.body13.lr.ph ], [ %first.3, %if.end19 ]
  %__begin17.034 = phi ptr [ %6, %for.body13.lr.ph ], [ %incdec.ptr24, %if.end19 ]
  %9 = load ptr, ptr %__begin17.034, align 8
  %10 = and i8 %first.235, 1
  %tobool15.not = icmp eq i8 %10, 0
  br i1 %tobool15.not, label %if.else17, label %if.end19

if.else17:                                        ; preds = %for.body13
  %call18 = tail call noundef nonnull align 8 dereferenceable(8) ptr @_ZStlsISt11char_traitsIcEERSt13basic_ostreamIcT_ES5_PKc(ptr noundef nonnull align 8 dereferenceable(8) %out, ptr noundef nonnull @.str.7)
  br label %if.end19

if.end19:                                         ; preds = %for.body13, %if.else17
  %first.3 = phi i8 [ %first.235, %if.else17 ], [ 0, %for.body13 ]
  %11 = load ptr, ptr %m21, align 8
  tail call void @_Z17ast_ll_bounded_ppRSoR11ast_managerP3astj(ptr noundef nonnull align 8 dereferenceable(8) %out, ptr noundef nonnull align 8 dereferenceable(976) %11, ptr noundef %9, i32 noundef 2)
  %incdec.ptr24 = getelementptr inbounds i8, ptr %__begin17.034, i64 8
  %cmp12.not = icmp eq ptr %incdec.ptr24, %add.ptr.i24
  br i1 %cmp12.not, label %for.end25, label %for.body13

for.end25:                                        ; preds = %if.end19, %for.end, %_ZNK15ref_vector_coreI4expr19ref_manager_wrapperIS0_11ast_managerEE3endEv.exit25
  %call26 = tail call noundef nonnull align 8 dereferenceable(8) ptr @_ZStlsISt11char_traitsIcEERSt13basic_ostreamIcT_ES5_PKc(ptr noundef nonnull align 8 dereferenceable(8) %out, ptr noundef nonnull @.str.54)
  %m_dep.i = getelementptr inbounds i8, ptr %e, i64 40
  %12 = load ptr, ptr %m_dep.i, align 8
  %call28 = tail call noundef nonnull align 8 dereferenceable(8) ptr @_ZNK3smt10theory_seq12display_depsERSoPN18dependency_managerIN25scoped_dependency_managerINS0_10assumptionEE6configEE10dependencyE(ptr noundef nonnull align 8 dereferenceable(4328) %this, ptr noundef nonnull align 8 dereferenceable(8) %out, ptr noundef %12)
  ret ptr %out
}